; Function Attrs: nounwind uwtable
define ptr @initialize_Lake_Util_StoreInsts(i8 noundef zeroext %0, ptr noundef readnone captures(none) %1) local_unnamed_addr #0 {
  %.b16 = load i1, ptr @_G_initialized, align 1
  br i1 %.b16, label %3, label %7

3:                                                ; preds = %2
  tail call void @lean_inc_heartbeat() #3
  %4 = tail call noalias ptr @mi_malloc_small(i64 noundef 24) #3
  %5 = icmp eq ptr %4, null
  br i1 %5, label %6, label %.sink.split

6:                                                ; preds = %3
  tail call void @lean_internal_panic_out_of_memory() #4
  unreachable

7:                                                ; preds = %2
  store i1 true, ptr @_G_initialized, align 1
  %8 = tail call ptr @initialize_Lake_Util_DRBMap(i8 noundef zeroext %0, ptr noundef nonnull inttoptr (i64 1 to ptr)) #3
  %9 = getelementptr i8, ptr %8, i64 4
  %.val = load i32, ptr %9, align 4
  %.mask.i = and i32 %.val, -16777216
  %10 = icmp eq i32 %.mask.i, 16777216
  br i1 %10, label %54, label %11

11:                                               ; preds = %7
  %12 = load i32, ptr %8, align 4, !tbaa !4
  %13 = icmp sgt i32 %12, 1
  br i1 %13, label %14, label %16, !prof !11

14:                                               ; preds = %11
  %15 = add nsw i32 %12, -1
  store i32 %15, ptr %8, align 4, !tbaa !4
  br label %lean_dec_ref.exit

16:                                               ; preds = %11
  %.not.i = icmp eq i32 %12, 0
  br i1 %.not.i, label %lean_dec_ref.exit, label %17

17:                                               ; preds = %16
  tail call void @lean_dec_ref_cold(ptr noundef nonnull %8) #3
  br label %lean_dec_ref.exit

lean_dec_ref.exit:                                ; preds = %14, %16, %17
  %18 = tail call ptr @initialize_Lake_Util_RBArray(i8 noundef zeroext %0, ptr noundef nonnull inttoptr (i64 1 to ptr)) #3
  %19 = getelementptr i8, ptr %18, i64 4
  %.val23 = load i32, ptr %19, align 4
  %.mask.i26 = and i32 %.val23, -16777216
  %20 = icmp eq i32 %.mask.i26, 16777216
  br i1 %20, label %54, label %21

21:                                               ; preds = %lean_dec_ref.exit
  %22 = load i32, ptr %18, align 4, !tbaa !4
  %23 = icmp sgt i32 %22, 1
  br i1 %23, label %24, label %26, !prof !11

24:                                               ; preds = %21
  %25 = add nsw i32 %22, -1
  store i32 %25, ptr %18, align 4, !tbaa !4
  br label %lean_dec_ref.exit18

26:                                               ; preds = %21
  %.not.i17 = icmp eq i32 %22, 0
  br i1 %.not.i17, label %lean_dec_ref.exit18, label %27

27:                                               ; preds = %26
  tail call void @lean_dec_ref_cold(ptr noundef nonnull %18) #3
  br label %lean_dec_ref.exit18

lean_dec_ref.exit18:                              ; preds = %24, %26, %27
  %28 = tail call ptr @initialize_Lake_Util_Family(i8 noundef zeroext %0, ptr noundef nonnull inttoptr (i64 1 to ptr)) #3
  %29 = getelementptr i8, ptr %28, i64 4
  %.val24 = load i32, ptr %29, align 4
  %.mask.i27 = and i32 %.val24, -16777216
  %30 = icmp eq i32 %.mask.i27, 16777216
  br i1 %30, label %54, label %31

31:                                               ; preds = %lean_dec_ref.exit18
  %32 = load i32, ptr %28, align 4, !tbaa !4
  %33 = icmp sgt i32 %32, 1
  br i1 %33, label %34, label %36, !prof !11

34:                                               ; preds = %31
  %35 = add nsw i32 %32, -1
  store i32 %35, ptr %28, align 4, !tbaa !4
  br label %lean_dec_ref.exit20

36:                                               ; preds = %31
  %.not.i19 = icmp eq i32 %32, 0
  br i1 %.not.i19, label %lean_dec_ref.exit20, label %37

37:                                               ; preds = %36
  tail call void @lean_dec_ref_cold(ptr noundef nonnull %28) #3
  br label %lean_dec_ref.exit20

lean_dec_ref.exit20:                              ; preds = %34, %36, %37
  %38 = tail call ptr @initialize_Lake_Util_Store(i8 noundef zeroext %0, ptr noundef nonnull inttoptr (i64 1 to ptr)) #3
  %39 = getelementptr i8, ptr %38, i64 4
  %.val25 = load i32, ptr %39, align 4
  %.mask.i28 = and i32 %.val25, -16777216
  %40 = icmp eq i32 %.mask.i28, 16777216
  br i1 %40, label %54, label %41

41:                                               ; preds = %lean_dec_ref.exit20
  %42 = load i32, ptr %38, align 4, !tbaa !4
  %43 = icmp sgt i32 %42, 1
  br i1 %43, label %44, label %46, !prof !11

44:                                               ; preds = %41
  %45 = add nsw i32 %42, -1
  store i32 %45, ptr %38, align 4, !tbaa !4
  br label %lean_dec_ref.exit22

46:                                               ; preds = %41
  %.not.i21 = icmp eq i32 %42, 0
  br i1 %.not.i21, label %lean_dec_ref.exit22, label %47

47:                                               ; preds = %46
  tail call void @lean_dec_ref_cold(ptr noundef nonnull %38) #3
  br label %lean_dec_ref.exit22

lean_dec_ref.exit22:                              ; preds = %44, %46, %47
  tail call void @lean_inc_heartbeat() #3
  %48 = tail call noalias ptr @mi_malloc_small(i64 noundef 24) #3
  %49 = icmp eq ptr %48, null
  br i1 %49, label %50, label %.sink.split

50:                                               ; preds = %lean_dec_ref.exit22
  tail call void @lean_internal_panic_out_of_memory() #4
  unreachable

.sink.split:                                      ; preds = %lean_dec_ref.exit22, %3
  %.sink33 = phi ptr [ %4, %3 ], [ %48, %lean_dec_ref.exit22 ]
  %51 = getelementptr inbounds nuw i8, ptr %.sink33, i64 4
  store i32 1, ptr %.sink33, align 4, !tbaa !4
  store i32 131096, ptr %51, align 4
  %52 = getelementptr inbounds nuw i8, ptr %.sink33, i64 8
  store ptr inttoptr (i64 1 to ptr), ptr %52, align 8, !tbaa !9
  %53 = getelementptr inbounds nuw i8, ptr %.sink33, i64 16
  store ptr inttoptr (i64 1 to ptr), ptr %53, align 8, !tbaa !9
  br label %54

54:                                               ; preds = %.sink.split, %lean_dec_ref.exit20, %lean_dec_ref.exit18, %lean_dec_ref.exit, %7
  %.0 = phi ptr [ %8, %7 ], [ %18, %lean_dec_ref.exit ], [ %28, %lean_dec_ref.exit18 ], [ %38, %lean_dec_ref.exit20 ], [ %.sink33, %.sink.split ]
  ret ptr %.0
}